target datalayout = "e-m:e-p270:32:32-p271:32:32-p272:64:64-i64:64-i128:128-f80:128-n8:16:32:64-S128"
target triple = "x86_64-pc-linux-gnu"

%"class.absl::CordzSamplingIntervalHelper" = type { i32 }
%"class.absl::Cord" = type { %"class.absl::Cord::InlineRep" }
%"class.absl::Cord::InlineRep" = type { %"class.absl::cord_internal::InlineData" }
%"class.absl::cord_internal::InlineData" = type { %"struct.absl::cord_internal::InlineData::Rep" }
%"struct.absl::cord_internal::InlineData::Rep" = type { %union.anon.84 }
%union.anon.84 = type { %"struct.absl::cord_internal::InlineData::Rep::AsTree" }
%"struct.absl::cord_internal::InlineData::Rep::AsTree" = type { i64, ptr }
%"class.testing::TestWithParam" = type { %"class.testing::Test", %"class.testing::WithParamInterface" }
%"class.testing::Test" = type { ptr, %"class.std::unique_ptr.76" }
%"class.std::unique_ptr.76" = type { %"struct.std::__uniq_ptr_data.77" }
%"struct.std::__uniq_ptr_data.77" = type { %"class.std::__uniq_ptr_impl.78" }
%"class.std::__uniq_ptr_impl.78" = type { %"class.std::tuple.79" }
%"class.std::tuple.79" = type { %"struct.std::_Tuple_impl.80" }
%"struct.std::_Tuple_impl.80" = type { %"struct.std::_Head_base.83" }
%"struct.std::_Head_base.83" = type { ptr }
%"class.testing::WithParamInterface" = type { ptr }
%"class.absl::(anonymous namespace)::CordzUpdateTest" = type { %"class.testing::TestWithParam", %"class.absl::CordzSamplingIntervalHelper", %"class.absl::Cord" }

; Function Attrs: mustprogress nounwind uwtable
define linkonce_odr dso_local noundef signext i8 @_ZNK4absl13cord_internal10InlineData3Rep3tagEv(ptr noundef nonnull align 8 dereferenceable(16) %0) #6 comdat align 2 {
  %2 = alloca ptr, align 8
  store ptr %0, ptr %2, align 8, !tbaa !421
  %3 = load ptr, ptr %2, align 8
  %4 = getelementptr inbounds i8, ptr %3, i64 0
  %5 = load i8, ptr %4, align 1, !tbaa !85
  ret i8 %5
}

; Function Attrs: mustprogress uwtable
define linkonce_odr dso_local noundef zeroext i1 @_ZNK4absl13cord_internal10InlineData7is_treeEv(ptr noundef nonnull align 8 dereferenceable(16) %0) #4 comdat align 2 {
  %2 = alloca ptr, align 8
  store ptr %0, ptr %2, align 8, !tbaa !419
  %3 = load ptr, ptr %2, align 8
  %4 = getelementptr inbounds nuw %"class.absl::cord_internal::InlineData", ptr %3, i32 0, i32 0
  %5 = call noundef signext i8 @_ZNK4absl13cord_internal10InlineData3Rep3tagEv(ptr noundef nonnull align 8 dereferenceable(16) %4)
  %6 = sext i8 %5 to i32
  %7 = and i32 %6, 1
  %8 = icmp ne i32 %7, 0
  ret i1 %8
}

; Function Attrs: mustprogress nounwind uwtable
define linkonce_odr dso_local void @_ZN7testing18WithParamInterfaceIN4absl12TestCordSizeEED2Ev(ptr noundef nonnull align 8 dereferenceable(8) %0) unnamed_addr #6 comdat align 2 {
  %2 = alloca ptr, align 8
  store ptr %0, ptr %2, align 8, !tbaa !651
  ret void
}

; Function Attrs: mustprogress uwtable
define linkonce_odr dso_local noundef zeroext i1 @_ZNK4absl4Cord9InlineRep7is_treeEv(ptr noundef nonnull align 8 dereferenceable(16) %0) #4 comdat align 2 {
  %2 = alloca ptr, align 8
  store ptr %0, ptr %2, align 8, !tbaa !417
  %3 = load ptr, ptr %2, align 8
  %4 = getelementptr inbounds nuw %"class.absl::Cord::InlineRep", ptr %3, i32 0, i32 0
  %5 = call noundef zeroext i1 @_ZNK4absl13cord_internal10InlineData7is_treeEv(ptr noundef nonnull align 8 dereferenceable(16) %4)
  ret i1 %5
}

; Function Attrs: inlinehint mustprogress nounwind uwtable
define linkonce_odr dso_local void @_ZN7testing13TestWithParamIN4absl12TestCordSizeEED2Ev(ptr noundef nonnull align 8 dereferenceable(24) %0) unnamed_addr #7 comdat align 2 {
  %2 = alloca ptr, align 8
  store ptr %0, ptr %2, align 8, !tbaa !649
  %3 = load ptr, ptr %2, align 8
  %4 = getelementptr inbounds i8, ptr %3, i64 16
  call void @_ZN7testing18WithParamInterfaceIN4absl12TestCordSizeEED2Ev(ptr noundef nonnull align 8 dereferenceable(8) %4) #3
  call void @_ZN7testing4TestD2Ev(ptr noundef nonnull align 8 dereferenceable(16) %3) #3
  ret void
}

; Function Attrs: mustprogress nounwind uwtable
define linkonce_odr dso_local void @_ZN4absl27CordzSamplingIntervalHelperD2Ev(ptr noundef nonnull align 4 dereferenceable(4) %0) unnamed_addr #6 comdat align 2 personality ptr @__gxx_personality_v0 {
  %2 = alloca ptr, align 8
  store ptr %0, ptr %2, align 8, !tbaa !295
  %3 = load ptr, ptr %2, align 8
  %4 = getelementptr inbounds nuw %"class.absl::CordzSamplingIntervalHelper", ptr %3, i32 0, i32 0
  %5 = load i32, ptr %4, align 4, !tbaa !297
  invoke void @_ZN4absl13cord_internal23set_cordz_mean_intervalEi(i32 noundef %5)
          to label %6 unwind label %11

6:                                                ; preds = %1
  %7 = getelementptr inbounds nuw %"class.absl::CordzSamplingIntervalHelper", ptr %3, i32 0, i32 0
  %8 = load i32, ptr %7, align 4, !tbaa !297
  %9 = sext i32 %8 to i64
  invoke void @_ZN4absl13cord_internal33cordz_set_next_sample_for_testingEl(i64 noundef %9)
          to label %10 unwind label %11

10:                                               ; preds = %6
  ret void

11:                                               ; preds = %6, %1
  %12 = landingpad { ptr, i32 }
          catch ptr null
  %13 = extractvalue { ptr, i32 } %12, 0
  call void @__clang_call_terminate(ptr %13) #30
  unreachable
}

; Function Attrs: mustprogress nounwind uwtable
define linkonce_odr dso_local void @_ZN4absl4CordD2Ev(ptr noundef nonnull align 8 dereferenceable(16) %0) unnamed_addr #6 comdat align 2 personality ptr @__gxx_personality_v0 {
  %2 = alloca ptr, align 8
  store ptr %0, ptr %2, align 8, !tbaa !299
  %3 = load ptr, ptr %2, align 8
  %4 = getelementptr inbounds nuw %"class.absl::Cord", ptr %3, i32 0, i32 0
  %5 = invoke noundef zeroext i1 @_ZNK4absl4Cord9InlineRep7is_treeEv(ptr noundef nonnull align 8 dereferenceable(16) %4)
          to label %6 unwind label %10

6:                                                ; preds = %1
  br i1 %5, label %7, label %9

7:                                                ; preds = %6
  invoke void @_ZN4absl4Cord15DestroyCordSlowEv(ptr noundef nonnull align 8 dereferenceable(16) %3)
          to label %8 unwind label %10

8:                                                ; preds = %7
  br label %9

9:                                                ; preds = %8, %6
  ret void

10:                                               ; preds = %7, %1
  %11 = landingpad { ptr, i32 }
          catch ptr null
  %12 = extractvalue { ptr, i32 } %11, 0
  call void @__clang_call_terminate(ptr %12) #30
  unreachable
}

; Function Attrs: inlinehint mustprogress nounwind uwtable
define internal void @_ZN4absl12_GLOBAL__N_115CordzUpdateTestD2Ev(ptr noundef nonnull align 8 dereferenceable(48) %0) unnamed_addr #7 align 2 {
  %2 = alloca ptr, align 8
  store ptr %0, ptr %2, align 8, !tbaa !825
  %3 = load ptr, ptr %2, align 8
  store ptr getelementptr inbounds inrange(-16, 48) ({ [8 x ptr], [4 x ptr] }, ptr @_ZTVN4absl12_GLOBAL__N_115CordzUpdateTestE, i32 0, i32 0, i32 2), ptr %3, align 8, !tbaa !25
  %4 = getelementptr inbounds i8, ptr %3, i64 16
  store ptr getelementptr inbounds inrange(-16, 16) ({ [8 x ptr], [4 x ptr] }, ptr @_ZTVN4absl12_GLOBAL__N_115CordzUpdateTestE, i32 0, i32 1, i32 2), ptr %4, align 8, !tbaa !25
  %5 = getelementptr inbounds nuw %"class.absl::(anonymous namespace)::CordzUpdateTest", ptr %3, i32 0, i32 2
  call void @_ZN4absl4CordD2Ev(ptr noundef nonnull align 8 dereferenceable(16) %5) #3
  %6 = getelementptr inbounds nuw %"class.absl::(anonymous namespace)::CordzUpdateTest", ptr %3, i32 0, i32 1
  call void @_ZN4absl27CordzSamplingIntervalHelperD2Ev(ptr noundef nonnull align 4 dereferenceable(4) %6) #3
  call void @_ZN7testing13TestWithParamIN4absl12TestCordSizeEED2Ev(ptr noundef nonnull align 8 dereferenceable(24) %3) #3
  ret void
}

; Function Attrs: inlinehint mustprogress nounwind uwtable
define internal void @_ZN4absl12_GLOBAL__N_140CordzUpdateTest_AssignUnsampledCord_TestD0Ev(ptr noundef nonnull align 8 dereferenceable(48) %0) unnamed_addr #7 align 2 {
  %2 = alloca ptr, align 8
  store ptr %0, ptr %2, align 8, !tbaa !823
  %3 = load ptr, ptr %2, align 8
  call void @_ZN4absl12_GLOBAL__N_115CordzUpdateTestD2Ev(ptr noundef nonnull align 8 dereferenceable(48) %3) #3
  call void @_ZdlPvm(ptr noundef %3, i64 noundef 48) #29
  ret void
}